; Function Attrs: mustprogress nofree norecurse nosync nounwind sspstrong willreturn memory(readwrite, inaccessiblemem: none) uwtable
define dso_local void @msix_set_pending(ptr noundef readonly captures(none) %dev, i32 noundef %vector) local_unnamed_addr #1 {
entry:
  %rem1.i = and i32 %vector, 7
  %shl.i = shl nuw nsw i32 1, %rem1.i
  %conv.i = trunc nuw i32 %shl.i to i8
  %0 = getelementptr i8, ptr %dev, i64 1280
  %dev.val = load ptr, ptr %0, align 16
  %div.i = sdiv i32 %vector, 8
  %idx.ext.i = sext i32 %div.i to i64
  %add.ptr.i = getelementptr i8, ptr %dev.val, i64 %idx.ext.i
  %1 = load i8, ptr %add.ptr.i, align 1
  %or2 = or i8 %1, %conv.i
  store i8 %or2, ptr %add.ptr.i, align 1
  ret void
}